; Function Attrs: mustprogress uwtable
define void @_ZN34BluetoothAttServerAttributesDialog28on_actionCopy_Cell_triggeredEv(ptr nocapture noundef nonnull readonly align 8 dereferenceable(208) %0) local_unnamed_addr #0 align 2 personality ptr @__gxx_personality_v0 {
  %2 = alloca %class.QVariant, align 8
  %3 = alloca %class.QString, align 16
  %4 = alloca %class.QString, align 16
  %5 = getelementptr inbounds i8, ptr %0, i64 136
  %6 = load ptr, ptr %5, align 8
  %7 = getelementptr inbounds i8, ptr %6, i64 56
  %8 = load ptr, ptr %7, align 8
  %9 = tail call noundef ptr @_ZNK11QTreeWidget11currentItemEv(ptr noundef nonnull align 8 dereferenceable(40) %8)
  %.not = icmp eq ptr %9, null
  br i1 %.not, label %_ZN7QStringD2Ev.exit8, label %10

10:                                               ; preds = %1
  %11 = tail call noundef ptr @_ZN15QGuiApplication9clipboardEv()
  call void @llvm.memset.p0.i64(ptr noundef nonnull align 16 dereferenceable(24) %3, i8 0, i64 24, i1 false)
  %12 = load ptr, ptr %5, align 8
  %13 = getelementptr inbounds i8, ptr %12, i64 56
  %14 = load ptr, ptr %13, align 8
  %15 = invoke noundef i32 @_ZNK11QTreeWidget13currentColumnEv(ptr noundef nonnull align 8 dereferenceable(40) %14)
          to label %16 unwind label %.body

16:                                               ; preds = %10
  call void @llvm.lifetime.start.p0(i64 32, ptr nonnull %2)
  %17 = load ptr, ptr %9, align 8, !noalias !42
  %18 = getelementptr inbounds i8, ptr %17, i64 24
  %19 = load ptr, ptr %18, align 8, !noalias !42
  invoke void %19(ptr dead_on_unwind nonnull writable sret(%class.QVariant) align 8 %2, ptr noundef nonnull align 8 dereferenceable(92) %9, i32 noundef %15, i32 noundef 0)
          to label %.noexc unwind label %.body

.noexc:                                           ; preds = %16
  invoke void @_ZNK8QVariant8toStringEv(ptr dead_on_unwind nonnull writable sret(%class.QString) align 8 %4, ptr noundef nonnull align 8 dereferenceable(32) %2)
          to label %_ZN7QStringD2Ev.exit unwind label %.body.thread

.body.thread:                                     ; preds = %.noexc
  %20 = landingpad { ptr, i32 }
          cleanup
  call void @_ZN8QVariantD1Ev(ptr noundef nonnull align 8 dereferenceable(32) %2) #17
  br label %_ZN7QStringD2Ev.exit12

_ZN7QStringD2Ev.exit:                             ; preds = %.noexc
  call void @_ZN8QVariantD1Ev(ptr noundef nonnull align 8 dereferenceable(32) %2) #17
  call void @llvm.lifetime.end.p0(i64 32, ptr nonnull %2)
  %21 = getelementptr inbounds i8, ptr %4, i64 8
  %22 = load <2 x ptr>, ptr %4, align 16
  store ptr null, ptr %4, align 16
  store <2 x ptr> %22, ptr %3, align 16
  store ptr null, ptr %21, align 8
  %23 = getelementptr inbounds i8, ptr %3, i64 16
  %24 = getelementptr inbounds i8, ptr %4, i64 16
  %25 = load i64, ptr %24, align 16
  store i64 %25, ptr %23, align 16
  store i64 0, ptr %24, align 16
  invoke void @_ZN10QClipboard7setTextERK7QStringNS_4ModeE(ptr noundef nonnull align 8 dereferenceable(16) %11, ptr noundef nonnull align 8 dereferenceable(24) %3, i32 noundef 0)
          to label %26 unwind label %.body

26:                                               ; preds = %_ZN7QStringD2Ev.exit
  %27 = load ptr, ptr %3, align 16
  %.not.i.i.i5 = icmp eq ptr %27, null
  br i1 %.not.i.i.i5, label %_ZN7QStringD2Ev.exit8, label %_ZN17QArrayDataPointerIDsE5derefEv.exit.i.i6

_ZN17QArrayDataPointerIDsE5derefEv.exit.i.i6:     ; preds = %26
  %28 = atomicrmw sub ptr %27, i32 1 seq_cst, align 4
  %.not.i.i7 = icmp eq i32 %28, 1
  br i1 %.not.i.i7, label %29, label %_ZN7QStringD2Ev.exit8

29:                                               ; preds = %_ZN17QArrayDataPointerIDsE5derefEv.exit.i.i6
  %30 = load ptr, ptr %3, align 16
  call void @_ZN10QArrayData10deallocateEPS_xx(ptr noundef %30, i64 noundef 2, i64 noundef 8) #17
  br label %_ZN7QStringD2Ev.exit8

_ZN7QStringD2Ev.exit8:                            ; preds = %29, %_ZN17QArrayDataPointerIDsE5derefEv.exit.i.i6, %26, %1
  ret void

.body:                                            ; preds = %10, %_ZN7QStringD2Ev.exit, %16
  %31 = landingpad { ptr, i32 }
          cleanup
  %.pre = load ptr, ptr %3, align 16
  %.not.i.i.i9 = icmp eq ptr %.pre, null
  br i1 %.not.i.i.i9, label %_ZN7QStringD2Ev.exit12, label %_ZN17QArrayDataPointerIDsE5derefEv.exit.i.i10

_ZN17QArrayDataPointerIDsE5derefEv.exit.i.i10:    ; preds = %.body
  %32 = atomicrmw sub ptr %.pre, i32 1 seq_cst, align 4
  %.not.i.i11 = icmp eq i32 %32, 1
  br i1 %.not.i.i11, label %33, label %_ZN7QStringD2Ev.exit12

33:                                               ; preds = %_ZN17QArrayDataPointerIDsE5derefEv.exit.i.i10
  %34 = load ptr, ptr %3, align 16
  call void @_ZN10QArrayData10deallocateEPS_xx(ptr noundef %34, i64 noundef 2, i64 noundef 8) #17
  br label %_ZN7QStringD2Ev.exit12

_ZN7QStringD2Ev.exit12:                           ; preds = %.body.thread, %.body, %_ZN17QArrayDataPointerIDsE5derefEv.exit.i.i10, %33
  %eh.lpad-body15 = phi { ptr, i32 } [ %20, %.body.thread ], [ %31, %.body ], [ %31, %_ZN17QArrayDataPointerIDsE5derefEv.exit.i.i10 ], [ %31, %33 ]
  resume { ptr, i32 } %eh.lpad-body15
}